target datalayout = "e-m:e-p270:32:32-p271:32:32-p272:64:64-i64:64-i128:128-f80:128-n8:16:32:64-S128"
target triple = "x86_64-pc-linux-gnu"

%struct.FunctionCallInfoBaseData = type { ptr, ptr, ptr, i32, i8, i16, [0 x %struct.NullableDatum] }
%struct.NullableDatum = type { i64, i8 }
%struct.WordEntry = type { i32 }
%struct.TSVectorData = type { i32, i32, [0 x %struct.WordEntry] }
%struct.WordEntryPosVector = type { i16, [0 x i16] }
%struct.StringInfoData = type { ptr, i32, i32, i32 }

; Function Attrs: inlinehint nounwind uwtable
define internal void @pq_writeint8(ptr noalias noundef %0, i8 noundef zeroext %1) #2 {
  %3 = alloca ptr, align 8
  %4 = alloca i8, align 1
  %5 = alloca i8, align 1
  store ptr %0, ptr %3, align 8
  store i8 %1, ptr %4, align 1
  call void @llvm.lifetime.start.p0(i64 1, ptr %5) #8
  %6 = load i8, ptr %4, align 1
  store i8 %6, ptr %5, align 1
  %7 = load ptr, ptr %3, align 8
  %8 = getelementptr inbounds nuw %struct.StringInfoData, ptr %7, i32 0, i32 0
  %9 = load ptr, ptr %8, align 8
  %10 = load ptr, ptr %3, align 8
  %11 = getelementptr inbounds nuw %struct.StringInfoData, ptr %10, i32 0, i32 1
  %12 = load i32, ptr %11, align 8
  %13 = sext i32 %12 to i64
  %14 = getelementptr inbounds i8, ptr %9, i64 %13
  call void @llvm.memcpy.p0.p0.i64(ptr align 1 %14, ptr align 1 %5, i64 1, i1 false)
  %15 = load ptr, ptr %3, align 8
  %16 = getelementptr inbounds nuw %struct.StringInfoData, ptr %15, i32 0, i32 1
  %17 = load i32, ptr %16, align 8
  %18 = sext i32 %17 to i64
  %19 = add i64 %18, 1
  %20 = trunc i64 %19 to i32
  store i32 %20, ptr %16, align 8
  call void @llvm.lifetime.end.p0(i64 1, ptr %5) #8
  ret void
}

; Function Attrs: inlinehint nounwind uwtable
define internal void @pq_writeint16(ptr noalias noundef %0, i16 noundef zeroext %1) #2 {
  %3 = alloca ptr, align 8
  %4 = alloca i16, align 2
  %5 = alloca i16, align 2
  store ptr %0, ptr %3, align 8
  store i16 %1, ptr %4, align 2
  call void @llvm.lifetime.start.p0(i64 2, ptr %5) #8
  %6 = load i16, ptr %4, align 2
  %7 = call i16 @llvm.bswap.i16(i16 %6)
  store i16 %7, ptr %5, align 2
  %8 = load ptr, ptr %3, align 8
  %9 = getelementptr inbounds nuw %struct.StringInfoData, ptr %8, i32 0, i32 0
  %10 = load ptr, ptr %9, align 8
  %11 = load ptr, ptr %3, align 8
  %12 = getelementptr inbounds nuw %struct.StringInfoData, ptr %11, i32 0, i32 1
  %13 = load i32, ptr %12, align 8
  %14 = sext i32 %13 to i64
  %15 = getelementptr inbounds i8, ptr %10, i64 %14
  call void @llvm.memcpy.p0.p0.i64(ptr align 1 %15, ptr align 2 %5, i64 2, i1 false)
  %16 = load ptr, ptr %3, align 8
  %17 = getelementptr inbounds nuw %struct.StringInfoData, ptr %16, i32 0, i32 1
  %18 = load i32, ptr %17, align 8
  %19 = sext i32 %18 to i64
  %20 = add i64 %19, 2
  %21 = trunc i64 %20 to i32
  store i32 %21, ptr %17, align 8
  call void @llvm.lifetime.end.p0(i64 2, ptr %5) #8
  ret void
}

; Function Attrs: inlinehint nounwind uwtable
define internal void @pq_sendint8(ptr noundef %0, i8 noundef zeroext %1) #2 {
  %3 = alloca ptr, align 8
  %4 = alloca i8, align 1
  store ptr %0, ptr %3, align 8
  store i8 %1, ptr %4, align 1
  %5 = load ptr, ptr %3, align 8
  call void @enlargeStringInfo(ptr noundef %5, i32 noundef 1)
  %6 = load ptr, ptr %3, align 8
  %7 = load i8, ptr %4, align 1
  call void @pq_writeint8(ptr noundef %6, i8 noundef zeroext %7)
  ret void
}

; Function Attrs: inlinehint nounwind uwtable
define internal void @pq_writeint32(ptr noalias noundef %0, i32 noundef %1) #2 {
  %3 = alloca ptr, align 8
  %4 = alloca i32, align 4
  %5 = alloca i32, align 4
  store ptr %0, ptr %3, align 8
  store i32 %1, ptr %4, align 4
  call void @llvm.lifetime.start.p0(i64 4, ptr %5) #8
  %6 = load i32, ptr %4, align 4
  %7 = call i32 @llvm.bswap.i32(i32 %6)
  store i32 %7, ptr %5, align 4
  %8 = load ptr, ptr %3, align 8
  %9 = getelementptr inbounds nuw %struct.StringInfoData, ptr %8, i32 0, i32 0
  %10 = load ptr, ptr %9, align 8
  %11 = load ptr, ptr %3, align 8
  %12 = getelementptr inbounds nuw %struct.StringInfoData, ptr %11, i32 0, i32 1
  %13 = load i32, ptr %12, align 8
  %14 = sext i32 %13 to i64
  %15 = getelementptr inbounds i8, ptr %10, i64 %14
  call void @llvm.memcpy.p0.p0.i64(ptr align 1 %15, ptr align 4 %5, i64 4, i1 false)
  %16 = load ptr, ptr %3, align 8
  %17 = getelementptr inbounds nuw %struct.StringInfoData, ptr %16, i32 0, i32 1
  %18 = load i32, ptr %17, align 8
  %19 = sext i32 %18 to i64
  %20 = add i64 %19, 4
  %21 = trunc i64 %20 to i32
  store i32 %21, ptr %17, align 8
  call void @llvm.lifetime.end.p0(i64 4, ptr %5) #8
  ret void
}

; Function Attrs: inlinehint nounwind uwtable
define internal ptr @DatumGetPointer(i64 noundef %0) #2 {
  %2 = alloca i64, align 8
  store i64 %0, ptr %2, align 8
  %3 = load i64, ptr %2, align 8
  %4 = inttoptr i64 %3 to ptr
  ret ptr %4
}

; Function Attrs: inlinehint nounwind uwtable
define internal i64 @PointerGetDatum(ptr noundef %0) #2 {
  %2 = alloca ptr, align 8
  store ptr %0, ptr %2, align 8
  %3 = load ptr, ptr %2, align 8
  %4 = ptrtoint ptr %3 to i64
  ret i64 %4
}

; Function Attrs: inlinehint nounwind uwtable
define internal void @pq_sendint16(ptr noundef %0, i16 noundef zeroext %1) #2 {
  %3 = alloca ptr, align 8
  %4 = alloca i16, align 2
  store ptr %0, ptr %3, align 8
  store i16 %1, ptr %4, align 2
  %5 = load ptr, ptr %3, align 8
  call void @enlargeStringInfo(ptr noundef %5, i32 noundef 2)
  %6 = load ptr, ptr %3, align 8
  %7 = load i16, ptr %4, align 2
  call void @pq_writeint16(ptr noundef %6, i16 noundef zeroext %7)
  ret void
}

; Function Attrs: inlinehint nounwind uwtable
define internal void @pq_sendbyte(ptr noundef %0, i8 noundef zeroext %1) #2 {
  %3 = alloca ptr, align 8
  %4 = alloca i8, align 1
  store ptr %0, ptr %3, align 8
  store i8 %1, ptr %4, align 1
  %5 = load ptr, ptr %3, align 8
  %6 = load i8, ptr %4, align 1
  call void @pq_sendint8(ptr noundef %5, i8 noundef zeroext %6)
  ret void
}

; Function Attrs: inlinehint nounwind uwtable
define internal void @pq_sendint32(ptr noundef %0, i32 noundef %1) #2 {
  %3 = alloca ptr, align 8
  %4 = alloca i32, align 4
  store ptr %0, ptr %3, align 8
  store i32 %1, ptr %4, align 4
  %5 = load ptr, ptr %3, align 8
  call void @enlargeStringInfo(ptr noundef %5, i32 noundef 4)
  %6 = load ptr, ptr %3, align 8
  %7 = load i32, ptr %4, align 4
  call void @pq_writeint32(ptr noundef %6, i32 noundef %7)
  ret void
}

; Function Attrs: inlinehint nounwind uwtable
define internal ptr @DatumGetTSVector(i64 noundef %0) #2 {
  %2 = alloca i64, align 8
  store i64 %0, ptr %2, align 8
  %3 = load i64, ptr %2, align 8
  %4 = call ptr @DatumGetPointer(i64 noundef %3)
  %5 = call ptr @pg_detoast_datum(ptr noundef %4)
  ret ptr %5
}

; Function Attrs: nounwind uwtable
define dso_local i64 @tsvectorsend(ptr noundef %0) #0 {
  %2 = alloca ptr, align 8
  %3 = alloca ptr, align 8
  %4 = alloca %struct.StringInfoData, align 8
  %5 = alloca i32, align 4
  %6 = alloca i32, align 4
  %7 = alloca ptr, align 8
  %8 = alloca i16, align 2
  %9 = alloca ptr, align 8
  store ptr %0, ptr %2, align 8
  call void @llvm.lifetime.start.p0(i64 8, ptr %3) #8
  %10 = load ptr, ptr %2, align 8
  %11 = getelementptr inbounds nuw %struct.FunctionCallInfoBaseData, ptr %10, i32 0, i32 6
  %12 = getelementptr inbounds [0 x %struct.NullableDatum], ptr %11, i64 0, i64 0
  %13 = getelementptr inbounds nuw %struct.NullableDatum, ptr %12, i32 0, i32 0
  %14 = load i64, ptr %13, align 8
  %15 = call ptr @DatumGetTSVector(i64 noundef %14)
  store ptr %15, ptr %3, align 8
  call void @llvm.lifetime.start.p0(i64 24, ptr %4) #8
  call void @llvm.lifetime.start.p0(i64 4, ptr %5) #8
  call void @llvm.lifetime.start.p0(i64 4, ptr %6) #8
  call void @llvm.lifetime.start.p0(i64 8, ptr %7) #8
  %16 = load ptr, ptr %3, align 8
  %17 = getelementptr inbounds nuw %struct.TSVectorData, ptr %16, i32 0, i32 2
  %18 = getelementptr inbounds [0 x %struct.WordEntry], ptr %17, i64 0, i64 0
  store ptr %18, ptr %7, align 8
  call void @pq_begintypsend(ptr noundef %4)
  %19 = load ptr, ptr %3, align 8
  %20 = getelementptr inbounds nuw %struct.TSVectorData, ptr %19, i32 0, i32 1
  %21 = load i32, ptr %20, align 4
  call void @pq_sendint32(ptr noundef %4, i32 noundef %21)
  store i32 0, ptr %5, align 4
  br label %22

22:                                               ; preds = %120, %1
  %23 = load i32, ptr %5, align 4
  %24 = load ptr, ptr %3, align 8
  %25 = getelementptr inbounds nuw %struct.TSVectorData, ptr %24, i32 0, i32 1
  %26 = load i32, ptr %25, align 4
  %27 = icmp slt i32 %23, %26
  br i1 %27, label %28, label %123

28:                                               ; preds = %22
  call void @llvm.lifetime.start.p0(i64 2, ptr %8) #8
  %29 = load ptr, ptr %3, align 8
  %30 = getelementptr inbounds nuw %struct.TSVectorData, ptr %29, i32 0, i32 2
  %31 = load ptr, ptr %3, align 8
  %32 = getelementptr inbounds nuw %struct.TSVectorData, ptr %31, i32 0, i32 1
  %33 = load i32, ptr %32, align 4
  %34 = sext i32 %33 to i64
  %35 = getelementptr inbounds [0 x %struct.WordEntry], ptr %30, i64 0, i64 %34
  %36 = load ptr, ptr %7, align 8
  %37 = load i32, ptr %36, align 4
  %38 = lshr i32 %37, 12
  %39 = sext i32 %38 to i64
  %40 = getelementptr inbounds i8, ptr %35, i64 %39
  %41 = load ptr, ptr %7, align 8
  %42 = load i32, ptr %41, align 4
  %43 = lshr i32 %42, 1
  %44 = and i32 %43, 2047
  call void @pq_sendtext(ptr noundef %4, ptr noundef %40, i32 noundef %44)
  call void @pq_sendbyte(ptr noundef %4, i8 noundef zeroext 0)
  %45 = load ptr, ptr %7, align 8
  %46 = load i32, ptr %45, align 4
  %47 = and i32 %46, 1
  %48 = icmp ne i32 %47, 0
  br i1 %48, label %49, label %72

49:                                               ; preds = %28
  %50 = load ptr, ptr %3, align 8
  %51 = getelementptr inbounds nuw %struct.TSVectorData, ptr %50, i32 0, i32 2
  %52 = load ptr, ptr %3, align 8
  %53 = getelementptr inbounds nuw %struct.TSVectorData, ptr %52, i32 0, i32 1
  %54 = load i32, ptr %53, align 4
  %55 = sext i32 %54 to i64
  %56 = getelementptr inbounds [0 x %struct.WordEntry], ptr %51, i64 0, i64 %55
  %57 = load ptr, ptr %7, align 8
  %58 = load i32, ptr %57, align 4
  %59 = lshr i32 %58, 12
  %60 = load ptr, ptr %7, align 8
  %61 = load i32, ptr %60, align 4
  %62 = lshr i32 %61, 1
  %63 = and i32 %62, 2047
  %64 = add i32 %59, %63
  %65 = sext i32 %64 to i64
  %66 = add i64 %65, 1
  %67 = and i64 %66, -2
  %68 = getelementptr inbounds nuw i8, ptr %56, i64 %67
  %69 = getelementptr inbounds nuw %struct.WordEntryPosVector, ptr %68, i32 0, i32 0
  %70 = load i16, ptr %69, align 2
  %71 = zext i16 %70 to i32
  br label %73

72:                                               ; preds = %28
  br label %73

73:                                               ; preds = %72, %49
  %74 = phi i32 [ %71, %49 ], [ 0, %72 ]
  %75 = trunc i32 %74 to i16
  store i16 %75, ptr %8, align 2
  %76 = load i16, ptr %8, align 2
  call void @pq_sendint16(ptr noundef %4, i16 noundef zeroext %76)
  %77 = load i16, ptr %8, align 2
  %78 = zext i16 %77 to i32
  %79 = icmp sgt i32 %78, 0
  br i1 %79, label %80, label %117

80:                                               ; preds = %73
  call void @llvm.lifetime.start.p0(i64 8, ptr %9) #8
  %81 = load ptr, ptr %3, align 8
  %82 = getelementptr inbounds nuw %struct.TSVectorData, ptr %81, i32 0, i32 2
  %83 = load ptr, ptr %3, align 8
  %84 = getelementptr inbounds nuw %struct.TSVectorData, ptr %83, i32 0, i32 1
  %85 = load i32, ptr %84, align 4
  %86 = sext i32 %85 to i64
  %87 = getelementptr inbounds [0 x %struct.WordEntry], ptr %82, i64 0, i64 %86
  %88 = load ptr, ptr %7, align 8
  %89 = load i32, ptr %88, align 4
  %90 = lshr i32 %89, 12
  %91 = load ptr, ptr %7, align 8
  %92 = load i32, ptr %91, align 4
  %93 = lshr i32 %92, 1
  %94 = and i32 %93, 2047
  %95 = add i32 %90, %94
  %96 = sext i32 %95 to i64
  %97 = add i64 %96, 1
  %98 = and i64 %97, -2
  %99 = getelementptr inbounds nuw i8, ptr %87, i64 %98
  %100 = getelementptr inbounds nuw %struct.WordEntryPosVector, ptr %99, i32 0, i32 1
  %101 = getelementptr inbounds [0 x i16], ptr %100, i64 0, i64 0
  store ptr %101, ptr %9, align 8
  store i32 0, ptr %6, align 4
  br label %102

102:                                              ; preds = %113, %80
  %103 = load i32, ptr %6, align 4
  %104 = load i16, ptr %8, align 2
  %105 = zext i16 %104 to i32
  %106 = icmp slt i32 %103, %105
  br i1 %106, label %107, label %116

107:                                              ; preds = %102
  %108 = load ptr, ptr %9, align 8
  %109 = load i32, ptr %6, align 4
  %110 = sext i32 %109 to i64
  %111 = getelementptr inbounds i16, ptr %108, i64 %110
  %112 = load i16, ptr %111, align 2
  call void @pq_sendint16(ptr noundef %4, i16 noundef zeroext %112)
  br label %113

113:                                              ; preds = %107
  %114 = load i32, ptr %6, align 4
  %115 = add i32 %114, 1
  store i32 %115, ptr %6, align 4
  br label %102, !llvm.loop !16

116:                                              ; preds = %102
  call void @llvm.lifetime.end.p0(i64 8, ptr %9) #8
  br label %117

117:                                              ; preds = %116, %73
  %118 = load ptr, ptr %7, align 8
  %119 = getelementptr inbounds nuw %struct.WordEntry, ptr %118, i32 1
  store ptr %119, ptr %7, align 8
  call void @llvm.lifetime.end.p0(i64 2, ptr %8) #8
  br label %120

120:                                              ; preds = %117
  %121 = load i32, ptr %5, align 4
  %122 = add i32 %121, 1
  store i32 %122, ptr %5, align 4
  br label %22, !llvm.loop !17

123:                                              ; preds = %22
  %124 = call ptr @pq_endtypsend(ptr noundef %4)
  %125 = call i64 @PointerGetDatum(ptr noundef %124)
  call void @llvm.lifetime.end.p0(i64 8, ptr %7) #8
  call void @llvm.lifetime.end.p0(i64 4, ptr %6) #8
  call void @llvm.lifetime.end.p0(i64 4, ptr %5) #8
  call void @llvm.lifetime.end.p0(i64 24, ptr %4) #8
  call void @llvm.lifetime.end.p0(i64 8, ptr %3) #8
  ret i64 %125
}