; Function Attrs: nounwind uwtable
define dso_local i64 @tsvectorsend(ptr noundef readonly captures(none) %0) local_unnamed_addr #2 {
  %2 = alloca %struct.StringInfoData, align 8
  %3 = getelementptr inbounds nuw i8, ptr %0, i64 32
  %4 = load i64, ptr %3, align 8
  %5 = inttoptr i64 %4 to ptr
  %6 = tail call ptr @pg_detoast_datum(ptr noundef %5) #11
  call void @llvm.lifetime.start.p0(i64 24, ptr nonnull %2) #11
  %7 = getelementptr inbounds nuw i8, ptr %6, i64 8
  call void @pq_begintypsend(ptr noundef nonnull %2) #11
  %8 = getelementptr inbounds nuw i8, ptr %6, i64 4
  %9 = load i32, ptr %8, align 4
  call void @enlargeStringInfo(ptr noundef nonnull %2, i32 noundef 4) #11
  call void @llvm.experimental.noalias.scope.decl(metadata !17)
  %10 = call i32 @llvm.bswap.i32(i32 %9)
  %11 = load ptr, ptr %2, align 8, !alias.scope !17
  %12 = getelementptr inbounds nuw i8, ptr %2, i64 8
  %13 = load i32, ptr %12, align 8, !alias.scope !17
  %14 = sext i32 %13 to i64
  %15 = getelementptr inbounds i8, ptr %11, i64 %14
  store i32 %10, ptr %15, align 1, !noalias !17
  %16 = add i32 %13, 4
  store i32 %16, ptr %12, align 8, !alias.scope !17
  %17 = load i32, ptr %8, align 4
  %18 = icmp sgt i32 %17, 0
  br i1 %18, label %.lr.ph, label %._crit_edge

.lr.ph:                                           ; preds = %1, %.loopexit
  %19 = phi i32 [ %79, %.loopexit ], [ %17, %1 ]
  %.034 = phi i32 [ %78, %.loopexit ], [ 0, %1 ]
  %.02733 = phi ptr [ %77, %.loopexit ], [ %7, %1 ]
  %20 = sext i32 %19 to i64
  %21 = getelementptr inbounds [0 x %struct.WordEntry], ptr %7, i64 0, i64 %20
  %22 = load i32, ptr %.02733, align 4
  %23 = lshr i32 %22, 12
  %24 = zext nneg i32 %23 to i64
  %25 = getelementptr inbounds nuw i8, ptr %21, i64 %24
  %26 = lshr i32 %22, 1
  %27 = and i32 %26, 2047
  call void @pq_sendtext(ptr noundef nonnull %2, ptr noundef nonnull %25, i32 noundef %27) #11
  call void @enlargeStringInfo(ptr noundef nonnull %2, i32 noundef 1) #11
  call void @llvm.experimental.noalias.scope.decl(metadata !20)
  %28 = load ptr, ptr %2, align 8, !alias.scope !20
  %29 = load i32, ptr %12, align 8, !alias.scope !20
  %30 = sext i32 %29 to i64
  %31 = getelementptr inbounds i8, ptr %28, i64 %30
  store i8 0, ptr %31, align 1, !noalias !20
  %32 = add i32 %29, 1
  store i32 %32, ptr %12, align 8, !alias.scope !20
  %33 = load i32, ptr %.02733, align 4
  %34 = and i32 %33, 1
  %.not = icmp eq i32 %34, 0
  br i1 %.not, label %47, label %35

35:                                               ; preds = %.lr.ph
  %36 = load i32, ptr %8, align 4
  %37 = sext i32 %36 to i64
  %38 = getelementptr inbounds [0 x %struct.WordEntry], ptr %7, i64 0, i64 %37
  %39 = lshr i32 %33, 12
  %40 = lshr i32 %33, 1
  %41 = and i32 %40, 2047
  %42 = add nuw nsw i32 %39, 1
  %narrow = add nuw nsw i32 %42, %41
  %43 = and i32 %narrow, 4194302
  %44 = zext nneg i32 %43 to i64
  %45 = getelementptr inbounds nuw i8, ptr %38, i64 %44
  %46 = load i16, ptr %45, align 2
  br label %47

47:                                               ; preds = %.lr.ph, %35
  %48 = phi i16 [ %46, %35 ], [ 0, %.lr.ph ]
  call void @enlargeStringInfo(ptr noundef nonnull %2, i32 noundef 2) #11
  call void @llvm.experimental.noalias.scope.decl(metadata !23)
  %49 = call i16 @llvm.bswap.i16(i16 %48)
  %50 = load ptr, ptr %2, align 8, !alias.scope !23
  %51 = load i32, ptr %12, align 8, !alias.scope !23
  %52 = sext i32 %51 to i64
  %53 = getelementptr inbounds i8, ptr %50, i64 %52
  store i16 %49, ptr %53, align 1, !noalias !23
  %54 = add i32 %51, 2
  store i32 %54, ptr %12, align 8, !alias.scope !23
  %.not30 = icmp eq i16 %48, 0
  br i1 %.not30, label %.loopexit, label %55

55:                                               ; preds = %47
  %56 = load i32, ptr %8, align 4
  %57 = sext i32 %56 to i64
  %58 = getelementptr inbounds [0 x %struct.WordEntry], ptr %7, i64 0, i64 %57
  %59 = load i32, ptr %.02733, align 4
  %60 = lshr i32 %59, 12
  %61 = lshr i32 %59, 1
  %62 = and i32 %61, 2047
  %63 = add nuw nsw i32 %60, 1
  %narrow31 = add nuw nsw i32 %63, %62
  %64 = and i32 %narrow31, 4194302
  %65 = zext nneg i32 %64 to i64
  %66 = getelementptr inbounds nuw i8, ptr %58, i64 %65
  %67 = getelementptr inbounds nuw i8, ptr %66, i64 2
  %wide.trip.count = zext i16 %48 to i64
  br label %68

68:                                               ; preds = %55, %68
  %indvars.iv = phi i64 [ 0, %55 ], [ %indvars.iv.next, %68 ]
  %69 = getelementptr inbounds nuw i16, ptr %67, i64 %indvars.iv
  %70 = load i16, ptr %69, align 2
  call void @enlargeStringInfo(ptr noundef nonnull %2, i32 noundef 2) #11
  call void @llvm.experimental.noalias.scope.decl(metadata !26)
  %71 = call i16 @llvm.bswap.i16(i16 %70)
  %72 = load ptr, ptr %2, align 8, !alias.scope !26
  %73 = load i32, ptr %12, align 8, !alias.scope !26
  %74 = sext i32 %73 to i64
  %75 = getelementptr inbounds i8, ptr %72, i64 %74
  store i16 %71, ptr %75, align 1, !noalias !26
  %76 = add i32 %73, 2
  store i32 %76, ptr %12, align 8, !alias.scope !26
  %indvars.iv.next = add nuw nsw i64 %indvars.iv, 1
  %exitcond.not = icmp eq i64 %indvars.iv.next, %wide.trip.count
  br i1 %exitcond.not, label %.loopexit, label %68, !llvm.loop !29

.loopexit:                                        ; preds = %68, %47
  %77 = getelementptr inbounds nuw i8, ptr %.02733, i64 4
  %78 = add nuw nsw i32 %.034, 1
  %79 = load i32, ptr %8, align 4
  %80 = icmp slt i32 %78, %79
  br i1 %80, label %.lr.ph, label %._crit_edge, !llvm.loop !30

._crit_edge:                                      ; preds = %.loopexit, %1
  %81 = call ptr @pq_endtypsend(ptr noundef nonnull %2) #11
  %82 = ptrtoint ptr %81 to i64
  call void @llvm.lifetime.end.p0(i64 24, ptr nonnull %2) #11
  ret i64 %82
}